target datalayout = "e-m:e-p270:32:32-p271:32:32-p272:64:64-i64:64-i128:128-f80:128-n8:16:32:64-S128"
target triple = "x86_64-pc-linux-gnu"

@.str = private unnamed_addr constant [33 x i8] c"../openssl/crypto/sm2/sm2_sign.c\00", align 1
@__func__.sm2_compute_msg_hash = private unnamed_addr constant [21 x i8] c"sm2_compute_msg_hash\00", align 1

; Function Attrs: nounwind uwtable
define internal ptr @sm2_compute_msg_hash(ptr noundef %0, ptr noundef %1, ptr noundef %2, i64 noundef %3, ptr noundef %4, i64 noundef %5) #0 {
  %7 = alloca ptr, align 8
  %8 = alloca ptr, align 8
  %9 = alloca ptr, align 8
  %10 = alloca i64, align 8
  %11 = alloca ptr, align 8
  %12 = alloca i64, align 8
  %13 = alloca ptr, align 8
  %14 = alloca i32, align 4
  %15 = alloca ptr, align 8
  %16 = alloca ptr, align 8
  %17 = alloca ptr, align 8
  %18 = alloca ptr, align 8
  %19 = alloca ptr, align 8
  store ptr %0, ptr %7, align 8, !tbaa !8
  store ptr %1, ptr %8, align 8, !tbaa !12
  store ptr %2, ptr %9, align 8, !tbaa !3
  store i64 %3, ptr %10, align 8, !tbaa !10
  store ptr %4, ptr %11, align 8, !tbaa !3
  store i64 %5, ptr %12, align 8, !tbaa !10
  call void @llvm.lifetime.start.p0(i64 8, ptr %13) #4
  %20 = call ptr @EVP_MD_CTX_new()
  store ptr %20, ptr %13, align 8, !tbaa !22
  call void @llvm.lifetime.start.p0(i64 4, ptr %14) #4
  %21 = load ptr, ptr %7, align 8, !tbaa !8
  %22 = call i32 @EVP_MD_get_size(ptr noundef %21)
  store i32 %22, ptr %14, align 4, !tbaa !14
  call void @llvm.lifetime.start.p0(i64 8, ptr %15) #4
  store ptr null, ptr %15, align 8, !tbaa !3
  call void @llvm.lifetime.start.p0(i64 8, ptr %16) #4
  store ptr null, ptr %16, align 8, !tbaa !24
  call void @llvm.lifetime.start.p0(i64 8, ptr %17) #4
  store ptr null, ptr %17, align 8, !tbaa !8
  call void @llvm.lifetime.start.p0(i64 8, ptr %18) #4
  %23 = load ptr, ptr %8, align 8, !tbaa !12
  %24 = call ptr @ossl_ec_key_get_libctx(ptr noundef %23)
  store ptr %24, ptr %18, align 8, !tbaa !31
  call void @llvm.lifetime.start.p0(i64 8, ptr %19) #4
  %25 = load ptr, ptr %8, align 8, !tbaa !12
  %26 = call ptr @ossl_ec_key_get0_propq(ptr noundef %25)
  store ptr %26, ptr %19, align 8, !tbaa !3
  %27 = load i32, ptr %14, align 4, !tbaa !14
  %28 = icmp sle i32 %27, 0
  br i1 %28, label %29, label %30

29:                                               ; preds = %6
  call void @ERR_new()
  call void @ERR_set_debug(ptr noundef @.str, i32 noundef 164, ptr noundef @__func__.sm2_compute_msg_hash)
  call void (i32, i32, ptr, ...) @ERR_set_error(i32 noundef 53, i32 noundef 102, ptr noundef null)
  br label %91

30:                                               ; preds = %6
  %31 = load ptr, ptr %13, align 8, !tbaa !22
  %32 = icmp eq ptr %31, null
  br i1 %32, label %33, label %34

33:                                               ; preds = %30
  call void @ERR_new()
  call void @ERR_set_debug(ptr noundef @.str, i32 noundef 168, ptr noundef @__func__.sm2_compute_msg_hash)
  call void (i32, i32, ptr, ...) @ERR_set_error(i32 noundef 53, i32 noundef 524294, ptr noundef null)
  br label %91

34:                                               ; preds = %30
  %35 = load i32, ptr %14, align 4, !tbaa !14
  %36 = sext i32 %35 to i64
  %37 = call noalias ptr @CRYPTO_zalloc(i64 noundef %36, ptr noundef @.str, i32 noundef 172)
  store ptr %37, ptr %15, align 8, !tbaa !3
  %38 = load ptr, ptr %15, align 8, !tbaa !3
  %39 = icmp eq ptr %38, null
  br i1 %39, label %40, label %41

40:                                               ; preds = %34
  br label %91

41:                                               ; preds = %34
  %42 = load ptr, ptr %18, align 8, !tbaa !31
  %43 = load ptr, ptr %7, align 8, !tbaa !8
  %44 = call ptr @EVP_MD_get0_name(ptr noundef %43)
  %45 = load ptr, ptr %19, align 8, !tbaa !3
  %46 = call ptr @EVP_MD_fetch(ptr noundef %42, ptr noundef %44, ptr noundef %45)
  store ptr %46, ptr %17, align 8, !tbaa !8
  %47 = load ptr, ptr %17, align 8, !tbaa !8
  %48 = icmp eq ptr %47, null
  br i1 %48, label %49, label %50

49:                                               ; preds = %41
  call void @ERR_new()
  call void @ERR_set_debug(ptr noundef @.str, i32 noundef 178, ptr noundef @__func__.sm2_compute_msg_hash)
  call void (i32, i32, ptr, ...) @ERR_set_error(i32 noundef 53, i32 noundef 786691, ptr noundef null)
  br label %91

50:                                               ; preds = %41
  %51 = load ptr, ptr %15, align 8, !tbaa !3
  %52 = load ptr, ptr %17, align 8, !tbaa !8
  %53 = load ptr, ptr %9, align 8, !tbaa !3
  %54 = load i64, ptr %10, align 8, !tbaa !10
  %55 = load ptr, ptr %8, align 8, !tbaa !12
  %56 = call i32 @ossl_sm2_compute_z_digest(ptr noundef %51, ptr noundef %52, ptr noundef %53, i64 noundef %54, ptr noundef %55)
  %57 = icmp ne i32 %56, 0
  br i1 %57, label %59, label %58

58:                                               ; preds = %50
  br label %91

59:                                               ; preds = %50
  %60 = load ptr, ptr %13, align 8, !tbaa !22
  %61 = load ptr, ptr %17, align 8, !tbaa !8
  %62 = call i32 @EVP_DigestInit(ptr noundef %60, ptr noundef %61)
  %63 = icmp ne i32 %62, 0
  br i1 %63, label %64, label %82

64:                                               ; preds = %59
  %65 = load ptr, ptr %13, align 8, !tbaa !22
  %66 = load ptr, ptr %15, align 8, !tbaa !3
  %67 = load i32, ptr %14, align 4, !tbaa !14
  %68 = sext i32 %67 to i64
  %69 = call i32 @EVP_DigestUpdate(ptr noundef %65, ptr noundef %66, i64 noundef %68)
  %70 = icmp ne i32 %69, 0
  br i1 %70, label %71, label %82

71:                                               ; preds = %64
  %72 = load ptr, ptr %13, align 8, !tbaa !22
  %73 = load ptr, ptr %11, align 8, !tbaa !3
  %74 = load i64, ptr %12, align 8, !tbaa !10
  %75 = call i32 @EVP_DigestUpdate(ptr noundef %72, ptr noundef %73, i64 noundef %74)
  %76 = icmp ne i32 %75, 0
  br i1 %76, label %77, label %82

77:                                               ; preds = %71
  %78 = load ptr, ptr %13, align 8, !tbaa !22
  %79 = load ptr, ptr %15, align 8, !tbaa !3
  %80 = call i32 @EVP_DigestFinal(ptr noundef %78, ptr noundef %79, ptr noundef null)
  %81 = icmp ne i32 %80, 0
  br i1 %81, label %83, label %82

82:                                               ; preds = %77, %71, %64, %59
  call void @ERR_new()
  call void @ERR_set_debug(ptr noundef @.str, i32 noundef 192, ptr noundef @__func__.sm2_compute_msg_hash)
  call void (i32, i32, ptr, ...) @ERR_set_error(i32 noundef 53, i32 noundef 524294, ptr noundef null)
  br label %91

83:                                               ; preds = %77
  %84 = load ptr, ptr %15, align 8, !tbaa !3
  %85 = load i32, ptr %14, align 4, !tbaa !14
  %86 = call ptr @BN_bin2bn(ptr noundef %84, i32 noundef %85, ptr noundef null)
  store ptr %86, ptr %16, align 8, !tbaa !24
  %87 = load ptr, ptr %16, align 8, !tbaa !24
  %88 = icmp eq ptr %87, null
  br i1 %88, label %89, label %90

89:                                               ; preds = %83
  call void @ERR_new()
  call void @ERR_set_debug(ptr noundef @.str, i32 noundef 198, ptr noundef @__func__.sm2_compute_msg_hash)
  call void (i32, i32, ptr, ...) @ERR_set_error(i32 noundef 53, i32 noundef 786691, ptr noundef null)
  br label %90

90:                                               ; preds = %89, %83
  br label %91

91:                                               ; preds = %90, %82, %58, %49, %40, %33, %29
  %92 = load ptr, ptr %17, align 8, !tbaa !8
  call void @EVP_MD_free(ptr noundef %92)
  %93 = load ptr, ptr %15, align 8, !tbaa !3
  call void @CRYPTO_free(ptr noundef %93, ptr noundef @.str, i32 noundef 202)
  %94 = load ptr, ptr %13, align 8, !tbaa !22
  call void @EVP_MD_CTX_free(ptr noundef %94)
  %95 = load ptr, ptr %16, align 8, !tbaa !24
  call void @llvm.lifetime.end.p0(i64 8, ptr %19) #4
  call void @llvm.lifetime.end.p0(i64 8, ptr %18) #4
  call void @llvm.lifetime.end.p0(i64 8, ptr %17) #4
  call void @llvm.lifetime.end.p0(i64 8, ptr %16) #4
  call void @llvm.lifetime.end.p0(i64 8, ptr %15) #4
  call void @llvm.lifetime.end.p0(i64 4, ptr %14) #4
  call void @llvm.lifetime.end.p0(i64 8, ptr %13) #4
  ret ptr %95
}