; Function Attrs: nounwind uwtable
define internal fastcc ptr @sm2_compute_msg_hash(ptr noundef %0, ptr noundef %1, ptr noundef %2, i64 noundef %3, ptr noundef %4, i64 noundef %5) unnamed_addr #0 {
  %7 = tail call ptr @EVP_MD_CTX_new() #4
  %8 = tail call i32 @EVP_MD_get_size(ptr noundef %0) #4
  %9 = tail call ptr @ossl_ec_key_get_libctx(ptr noundef %1) #4
  %10 = tail call ptr @ossl_ec_key_get0_propq(ptr noundef %1) #4
  %11 = icmp slt i32 %8, 1
  br i1 %11, label %.sink.split, label %12

12:                                               ; preds = %6
  %13 = icmp eq ptr %7, null
  br i1 %13, label %.sink.split, label %14

14:                                               ; preds = %12
  %15 = zext nneg i32 %8 to i64
  %16 = tail call noalias ptr @CRYPTO_zalloc(i64 noundef %15, ptr noundef nonnull @.str, i32 noundef 172) #4
  %17 = icmp eq ptr %16, null
  br i1 %17, label %35, label %18

18:                                               ; preds = %14
  %19 = tail call ptr @EVP_MD_get0_name(ptr noundef %0) #4
  %20 = tail call ptr @EVP_MD_fetch(ptr noundef %9, ptr noundef %19, ptr noundef %10) #4
  %21 = icmp eq ptr %20, null
  br i1 %21, label %.sink.split, label %22

22:                                               ; preds = %18
  %23 = tail call i32 @ossl_sm2_compute_z_digest(ptr noundef nonnull %16, ptr noundef nonnull %20, ptr noundef %2, i64 noundef %3, ptr noundef %1)
  %.not = icmp eq i32 %23, 0
  br i1 %.not, label %35, label %24

24:                                               ; preds = %22
  %25 = tail call i32 @EVP_DigestInit(ptr noundef nonnull %7, ptr noundef nonnull %20) #4
  %.not41 = icmp eq i32 %25, 0
  br i1 %.not41, label %.sink.split, label %26

26:                                               ; preds = %24
  %27 = tail call i32 @EVP_DigestUpdate(ptr noundef nonnull %7, ptr noundef nonnull %16, i64 noundef %15) #4
  %.not42 = icmp eq i32 %27, 0
  br i1 %.not42, label %.sink.split, label %28

28:                                               ; preds = %26
  %29 = tail call i32 @EVP_DigestUpdate(ptr noundef nonnull %7, ptr noundef %4, i64 noundef %5) #4
  %.not43 = icmp eq i32 %29, 0
  br i1 %.not43, label %.sink.split, label %30

30:                                               ; preds = %28
  %31 = tail call i32 @EVP_DigestFinal(ptr noundef nonnull %7, ptr noundef nonnull %16, ptr noundef null) #4
  %.not44 = icmp eq i32 %31, 0
  br i1 %.not44, label %.sink.split, label %32

32:                                               ; preds = %30
  %33 = tail call ptr @BN_bin2bn(ptr noundef nonnull %16, i32 noundef %8, ptr noundef null) #4
  %34 = icmp eq ptr %33, null
  br i1 %34, label %.sink.split, label %35

.sink.split:                                      ; preds = %32, %24, %26, %28, %30, %18, %12, %6
  %.sink45 = phi i32 [ 164, %6 ], [ 168, %12 ], [ 178, %18 ], [ 192, %30 ], [ 192, %28 ], [ 192, %26 ], [ 192, %24 ], [ 198, %32 ]
  %.sink = phi i32 [ 102, %6 ], [ 524294, %12 ], [ 786691, %18 ], [ 524294, %30 ], [ 524294, %28 ], [ 524294, %26 ], [ 524294, %24 ], [ 786691, %32 ]
  %.033.ph = phi ptr [ null, %6 ], [ null, %12 ], [ null, %18 ], [ %20, %30 ], [ %20, %28 ], [ %20, %26 ], [ %20, %24 ], [ %20, %32 ]
  %.0.ph = phi ptr [ null, %6 ], [ null, %12 ], [ %16, %18 ], [ %16, %30 ], [ %16, %28 ], [ %16, %26 ], [ %16, %24 ], [ %16, %32 ]
  tail call void @ERR_new() #4
  tail call void @ERR_set_debug(ptr noundef nonnull @.str, i32 noundef %.sink45, ptr noundef nonnull @__func__.sm2_compute_msg_hash) #4
  tail call void (i32, i32, ptr, ...) @ERR_set_error(i32 noundef 53, i32 noundef %.sink, ptr noundef null) #4
  br label %35

35:                                               ; preds = %.sink.split, %32, %22, %14
  %.033 = phi ptr [ null, %14 ], [ %20, %32 ], [ %20, %22 ], [ %.033.ph, %.sink.split ]
  %.032 = phi ptr [ null, %14 ], [ %33, %32 ], [ null, %22 ], [ null, %.sink.split ]
  %.0 = phi ptr [ null, %14 ], [ %16, %32 ], [ %16, %22 ], [ %.0.ph, %.sink.split ]
  tail call void @EVP_MD_free(ptr noundef %.033) #4
  tail call void @CRYPTO_free(ptr noundef %.0, ptr noundef nonnull @.str, i32 noundef 202) #4
  tail call void @EVP_MD_CTX_free(ptr noundef %7) #4
  ret ptr %.032
}